; ModuleID = '55/591.c'
source_filename = "55/591.c"
target datalayout = "e-m:e-p270:32:32-p271:32:32-p272:64:64-i64:64-f80:128-n8:16:32:64-S128"
target triple = "x86_64-pc-linux-gnu"

@.str = private unnamed_addr constant [9 x i8] c"%d %s %d\00", align 1
@.str.1 = private unnamed_addr constant [3 x i8] c"%c\00", align 1

; Function Attrs: noinline nounwind uwtable
define dso_local i32 @main() #0 {
  %1 = alloca i32, align 4
  %2 = alloca i32, align 4
  %3 = alloca i32, align 4
  %4 = alloca i32, align 4
  %5 = alloca i32, align 4
  %6 = alloca i32, align 4
  %7 = alloca i32, align 4
  %8 = alloca i64, align 8
  %9 = alloca [10 x i8], align 1
  %10 = alloca [10 x i8], align 1
  store i32 0, i32* %1, align 4
  %11 = getelementptr inbounds [10 x i8], [10 x i8]* %9, i64 0, i64 0
  %12 = call i32 (i8*, ...) @__isoc99_scanf(i8* getelementptr inbounds ([9 x i8], [9 x i8]* @.str, i64 0, i64 0), i32* %4, i8* %11, i32* %5)
  %13 = getelementptr inbounds [10 x i8], [10 x i8]* %9, i64 0, i64 0
  %14 = call i64 @strlen(i8* %13) #3
  %15 = trunc i64 %14 to i32
  store i32 %15, i32* %7, align 4
  store i64 0, i64* %8, align 8
  store i32 0, i32* %2, align 4
  br label %16

16:                                               ; preds = %101, %0
  %17 = load i32, i32* %2, align 4
  %18 = load i32, i32* %7, align 4
  %19 = icmp slt i32 %17, %18
  br i1 %19, label %20, label %104

20:                                               ; preds = %16
  %21 = load i32, i32* %2, align 4
  %22 = sext i32 %21 to i64
  %23 = getelementptr inbounds [10 x i8], [10 x i8]* %9, i64 0, i64 %22
  %24 = load i8, i8* %23, align 1
  %25 = sext i8 %24 to i32
  %26 = icmp sge i32 %25, 97
  br i1 %26, label %27, label %47

27:                                               ; preds = %20
  %28 = load i32, i32* %2, align 4
  %29 = sext i32 %28 to i64
  %30 = getelementptr inbounds [10 x i8], [10 x i8]* %9, i64 0, i64 %29
  %31 = load i8, i8* %30, align 1
  %32 = sext i8 %31 to i32
  %33 = icmp sle i32 %32, 122
  br i1 %33, label %34, label %47

34:                                               ; preds = %27
  %35 = load i64, i64* %8, align 8
  %36 = load i32, i32* %4, align 4
  %37 = sext i32 %36 to i64
  %38 = mul nsw i64 %35, %37
  %39 = load i32, i32* %2, align 4
  %40 = sext i32 %39 to i64
  %41 = getelementptr inbounds [10 x i8], [10 x i8]* %9, i64 0, i64 %40
  %42 = load i8, i8* %41, align 1
  %43 = sext i8 %42 to i64
  %44 = add nsw i64 %38, %43
  %45 = sub nsw i64 %44, 97
  %46 = add nsw i64 %45, 10
  store i64 %46, i64* %8, align 8
  br label %47

47:                                               ; preds = %34, %27, %20
  %48 = load i32, i32* %2, align 4
  %49 = sext i32 %48 to i64
  %50 = getelementptr inbounds [10 x i8], [10 x i8]* %9, i64 0, i64 %49
  %51 = load i8, i8* %50, align 1
  %52 = sext i8 %51 to i32
  %53 = icmp sge i32 %52, 65
  br i1 %53, label %54, label %74

54:                                               ; preds = %47
  %55 = load i32, i32* %2, align 4
  %56 = sext i32 %55 to i64
  %57 = getelementptr inbounds [10 x i8], [10 x i8]* %9, i64 0, i64 %56
  %58 = load i8, i8* %57, align 1
  %59 = sext i8 %58 to i32
  %60 = icmp sle i32 %59, 90
  br i1 %60, label %61, label %74

61:                                               ; preds = %54
  %62 = load i64, i64* %8, align 8
  %63 = load i32, i32* %4, align 4
  %64 = sext i32 %63 to i64
  %65 = mul nsw i64 %62, %64
  %66 = load i32, i32* %2, align 4
  %67 = sext i32 %66 to i64
  %68 = getelementptr inbounds [10 x i8], [10 x i8]* %9, i64 0, i64 %67
  %69 = load i8, i8* %68, align 1
  %70 = sext i8 %69 to i64
  %71 = add nsw i64 %65, %70
  %72 = sub nsw i64 %71, 65
  %73 = add nsw i64 %72, 10
  store i64 %73, i64* %8, align 8
  br label %74

74:                                               ; preds = %61, %54, %47
  %75 = load i32, i32* %2, align 4
  %76 = sext i32 %75 to i64
  %77 = getelementptr inbounds [10 x i8], [10 x i8]* %9, i64 0, i64 %76
  %78 = load i8, i8* %77, align 1
  %79 = sext i8 %78 to i32
  %80 = icmp sge i32 %79, 48
  br i1 %80, label %81, label %100

81:                                               ; preds = %74
  %82 = load i32, i32* %2, align 4
  %83 = sext i32 %82 to i64
  %84 = getelementptr inbounds [10 x i8], [10 x i8]* %9, i64 0, i64 %83
  %85 = load i8, i8* %84, align 1
  %86 = sext i8 %85 to i32
  %87 = icmp sle i32 %86, 57
  br i1 %87, label %88, label %100

88:                                               ; preds = %81
  %89 = load i64, i64* %8, align 8
  %90 = load i32, i32* %4, align 4
  %91 = sext i32 %90 to i64
  %92 = mul nsw i64 %89, %91
  %93 = load i32, i32* %2, align 4
  %94 = sext i32 %93 to i64
  %95 = getelementptr inbounds [10 x i8], [10 x i8]* %9, i64 0, i64 %94
  %96 = load i8, i8* %95, align 1
  %97 = sext i8 %96 to i64
  %98 = add nsw i64 %92, %97
  %99 = sub nsw i64 %98, 48
  store i64 %99, i64* %8, align 8
  br label %100

100:                                              ; preds = %88, %81, %74
  br label %101

101:                                              ; preds = %100
  %102 = load i32, i32* %2, align 4
  %103 = add nsw i32 %102, 1
  store i32 %103, i32* %2, align 4
  br label %16

104:                                              ; preds = %16
  store i32 0, i32* %6, align 4
  store i32 0, i32* %2, align 4
  br label %105

105:                                              ; preds = %143, %104
  %106 = load i64, i64* %8, align 8
  %107 = load i32, i32* %5, align 4
  %108 = sext i32 %107 to i64
  %109 = srem i64 %106, %108
  %110 = icmp sge i64 %109, 10
  br i1 %110, label %111, label %122

111:                                              ; preds = %105
  %112 = load i64, i64* %8, align 8
  %113 = load i32, i32* %5, align 4
  %114 = sext i32 %113 to i64
  %115 = srem i64 %112, %114
  %116 = sub nsw i64 %115, 10
  %117 = add nsw i64 %116, 65
  %118 = trunc i64 %117 to i8
  %119 = load i32, i32* %6, align 4
  %120 = sext i32 %119 to i64
  %121 = getelementptr inbounds [10 x i8], [10 x i8]* %10, i64 0, i64 %120
  store i8 %118, i8* %121, align 1
  br label %132

122:                                              ; preds = %105
  %123 = load i64, i64* %8, align 8
  %124 = load i32, i32* %5, align 4
  %125 = sext i32 %124 to i64
  %126 = srem i64 %123, %125
  %127 = add nsw i64 %126, 48
  %128 = trunc i64 %127 to i8
  %129 = load i32, i32* %6, align 4
  %130 = sext i32 %129 to i64
  %131 = getelementptr inbounds [10 x i8], [10 x i8]* %10, i64 0, i64 %130
  store i8 %128, i8* %131, align 1
  br label %132

132:                                              ; preds = %122, %111
  %133 = load i32, i32* %6, align 4
  %134 = add nsw i32 %133, 1
  store i32 %134, i32* %6, align 4
  %135 = load i64, i64* %8, align 8
  %136 = load i32, i32* %5, align 4
  %137 = sext i32 %136 to i64
  %138 = sdiv i64 %135, %137
  store i64 %138, i64* %8, align 8
  %139 = load i64, i64* %8, align 8
  %140 = icmp eq i64 %139, 0
  br i1 %140, label %141, label %142

141:                                              ; preds = %132
  br label %146

142:                                              ; preds = %132
  br label %143

143:                                              ; preds = %142
  %144 = load i32, i32* %2, align 4
  %145 = add nsw i32 %144, 1
  store i32 %145, i32* %2, align 4
  br label %105

146:                                              ; preds = %141
  %147 = load i32, i32* %6, align 4
  %148 = sub nsw i32 %147, 1
  store i32 %148, i32* %2, align 4
  br label %149

149:                                              ; preds = %159, %146
  %150 = load i32, i32* %2, align 4
  %151 = icmp sge i32 %150, 0
  br i1 %151, label %152, label %162

152:                                              ; preds = %149
  %153 = load i32, i32* %2, align 4
  %154 = sext i32 %153 to i64
  %155 = getelementptr inbounds [10 x i8], [10 x i8]* %10, i64 0, i64 %154
  %156 = load i8, i8* %155, align 1
  %157 = sext i8 %156 to i32
  %158 = call i32 (i8*, ...) @printf(i8* getelementptr inbounds ([3 x i8], [3 x i8]* @.str.1, i64 0, i64 0), i32 %157)
  br label %159

159:                                              ; preds = %152
  %160 = load i32, i32* %2, align 4
  %161 = add nsw i32 %160, -1
  store i32 %161, i32* %2, align 4
  br label %149

162:                                              ; preds = %149
  %163 = load i32, i32* %1, align 4
  ret i32 %163
}

declare dso_local i32 @__isoc99_scanf(i8*, ...) #1

; Function Attrs: nounwind readonly
declare dso_local i64 @strlen(i8*) #2

declare dso_local i32 @printf(i8*, ...) #1


!llvm.module.flags = !{!0}
!llvm.ident = !{!1}

!0 = !{i32 1, !"wchar_size", i32 4}
!1 = !{!"clang version 10.0.0-4ubuntu1 "}
